; Function Attrs: mustprogress uwtable
define dso_local void @_ZN3net9QuicAlarm3SetENS_8QuicTimeE(ptr noundef nonnull align 8 dereferenceable(24) %this, i64 %new_deadline.coerce) local_unnamed_addr #4 align 2 {
entry:
  %deadline_ = getelementptr inbounds i8, ptr %this, i64 16
  store i64 %new_deadline.coerce, ptr %deadline_, align 8
  %vtable = load ptr, ptr %this, align 8
  %vfn = getelementptr inbounds i8, ptr %vtable, i64 16
  %0 = load ptr, ptr %vfn, align 8
  tail call void %0(ptr noundef nonnull align 8 dereferenceable(24) %this)
  ret void
}